; Function Attrs: mustprogress nofree norecurse nosync nounwind willreturn memory(argmem: read) uwtable
define hidden { ptr, i32 } @_ZN6google8protobuf8internal16ReadSizeFallbackEPKcj(ptr noundef %0, i32 noundef %1) local_unnamed_addr #10 {
  br label %.critedge

3:                                                ; preds = %.critedge
  %indvars.iv.next = add nuw nsw i64 %indvars.iv, 1
  %exitcond.not = icmp eq i64 %indvars.iv.next, 4
  br i1 %exitcond.not, label %16, label %.critedge, !llvm.loop !29

.critedge:                                        ; preds = %2, %3
  %indvars.iv = phi i64 [ 1, %2 ], [ %indvars.iv.next, %3 ]
  %.02234 = phi i32 [ %1, %2 ], [ %11, %3 ]
  %4 = getelementptr inbounds nuw i8, ptr %0, i64 %indvars.iv
  %5 = load i8, ptr %4, align 1, !tbaa !25
  %6 = zext i8 %5 to i32
  %7 = add nsw i32 %6, -1
  %8 = trunc i64 %indvars.iv to i32
  %9 = mul i32 %8, 7
  %10 = shl nsw i32 %7, %9
  %11 = add i32 %10, %.02234
  %12 = icmp slt i8 %5, 0
  br i1 %12, label %3, label %13, !prof !27

13:                                               ; preds = %.critedge
  %14 = getelementptr inbounds nuw i8, ptr %0, i64 %indvars.iv
  %15 = getelementptr inbounds nuw i8, ptr %14, i64 1
  br label %27

16:                                               ; preds = %3
  %17 = getelementptr inbounds nuw i8, ptr %0, i64 4
  %18 = load i8, ptr %17, align 1, !tbaa !25
  %19 = icmp ugt i8 %18, 7
  br i1 %19, label %27, label %20, !prof !27

20:                                               ; preds = %16
  %21 = zext nneg i8 %18 to i32
  %22 = shl nuw nsw i32 %21, 28
  %23 = add i32 %11, -268435456
  %24 = add i32 %23, %22
  %25 = icmp ugt i32 %24, 2147483631
  %26 = getelementptr inbounds nuw i8, ptr %0, i64 5
  %spec.select = select i1 %25, ptr null, ptr %26, !prof !27
  %spec.select30 = select i1 %25, i32 0, i32 %24, !prof !27
  br label %27

27:                                               ; preds = %20, %16, %13
  %.sroa.0.1 = phi ptr [ %15, %13 ], [ null, %16 ], [ %spec.select, %20 ]
  %.sroa.5.1 = phi i32 [ %11, %13 ], [ 0, %16 ], [ %spec.select30, %20 ]
  %.fca.0.insert = insertvalue { ptr, i32 } poison, ptr %.sroa.0.1, 0
  %.fca.1.insert = insertvalue { ptr, i32 } %.fca.0.insert, i32 %.sroa.5.1, 1
  ret { ptr, i32 } %.fca.1.insert
}